target datalayout = "e-m:e-p270:32:32-p271:32:32-p272:64:64-i64:64-i128:128-f80:128-n8:16:32:64-S128"
target triple = "x86_64-pc-linux-gnu"

%struct.bufferevent_private = type { %struct.bufferevent, ptr, i8, i16, i16, i16, i32, i32, %struct.event_callback, i32, i32, ptr, i64, i64, ptr, %union.anon.7, ptr }
%struct.bufferevent = type { ptr, ptr, %struct.event, %struct.event, ptr, ptr, %struct.event_watermark, %struct.event_watermark, ptr, ptr, ptr, ptr, %struct.timeval, %struct.timeval, i16 }
%struct.event = type { %struct.event_callback, %union.anon.0, i32, i16, i16, ptr, %union.anon.2, %struct.timeval }
%union.anon.0 = type { %struct.anon.1 }
%struct.anon.1 = type { ptr, ptr }
%union.anon.2 = type { %struct.anon.3 }
%struct.anon.3 = type { %struct.anon.4, %struct.timeval }
%struct.anon.4 = type { ptr, ptr }
%struct.event_watermark = type { i64, i64 }
%struct.timeval = type { i64, i64 }
%struct.event_callback = type { %struct.anon, i16, i8, i8, %union.anon, ptr }
%struct.anon = type { ptr, ptr }
%union.anon = type { ptr }
%union.anon.7 = type { %struct.sockaddr_in6 }
%struct.sockaddr_in6 = type { i16, i16, i32, %struct.in6_addr, i32 }
%struct.in6_addr = type { %union.anon.8 }
%union.anon.8 = type { [4 x i32] }

; Function Attrs: nounwind uwtable
define i32 @bufferevent_generic_adj_timeouts_(ptr noundef %0) #0 {
  %2 = alloca i32, align 4
  %3 = alloca ptr, align 8
  %4 = alloca i16, align 2
  %5 = alloca ptr, align 8
  %6 = alloca i32, align 4
  %7 = alloca i32, align 4
  %8 = alloca i32, align 4
  store ptr %0, ptr %3, align 8
  call void @llvm.lifetime.start.p0(i64 2, ptr %4) #7
  %9 = load ptr, ptr %3, align 8
  %10 = getelementptr inbounds nuw %struct.bufferevent, ptr %9, i32 0, i32 14
  %11 = load i16, ptr %10, align 8
  store i16 %11, ptr %4, align 2
  call void @llvm.lifetime.start.p0(i64 8, ptr %5) #7
  %12 = load ptr, ptr %3, align 8
  %13 = getelementptr inbounds i8, ptr %12, i64 0
  store ptr %13, ptr %5, align 8
  call void @llvm.lifetime.start.p0(i64 4, ptr %6) #7
  store i32 0, ptr %6, align 4
  call void @llvm.lifetime.start.p0(i64 4, ptr %7) #7
  store i32 0, ptr %7, align 4
  %14 = load i16, ptr %4, align 2
  %15 = sext i16 %14 to i32
  %16 = and i32 %15, 2
  %17 = icmp ne i32 %16, 0
  br i1 %17, label %18, label %41

18:                                               ; preds = %1
  %19 = load ptr, ptr %5, align 8
  %20 = getelementptr inbounds nuw %struct.bufferevent_private, ptr %19, i32 0, i32 4
  %21 = load i16, ptr %20, align 4
  %22 = icmp ne i16 %21, 0
  br i1 %22, label %41, label %23

23:                                               ; preds = %18
  %24 = load ptr, ptr %3, align 8
  %25 = getelementptr inbounds nuw %struct.bufferevent, ptr %24, i32 0, i32 12
  %26 = getelementptr inbounds nuw %struct.timeval, ptr %25, i32 0, i32 0
  %27 = load i64, ptr %26, align 8
  %28 = icmp ne i64 %27, 0
  br i1 %28, label %35, label %29

29:                                               ; preds = %23
  %30 = load ptr, ptr %3, align 8
  %31 = getelementptr inbounds nuw %struct.bufferevent, ptr %30, i32 0, i32 12
  %32 = getelementptr inbounds nuw %struct.timeval, ptr %31, i32 0, i32 1
  %33 = load i64, ptr %32, align 8
  %34 = icmp ne i64 %33, 0
  br i1 %34, label %35, label %41

35:                                               ; preds = %29, %23
  %36 = load ptr, ptr %3, align 8
  %37 = getelementptr inbounds nuw %struct.bufferevent, ptr %36, i32 0, i32 2
  %38 = load ptr, ptr %3, align 8
  %39 = getelementptr inbounds nuw %struct.bufferevent, ptr %38, i32 0, i32 12
  %40 = call i32 @event_add(ptr noundef %37, ptr noundef %39)
  store i32 %40, ptr %6, align 4
  br label %45

41:                                               ; preds = %29, %18, %1
  %42 = load ptr, ptr %3, align 8
  %43 = getelementptr inbounds nuw %struct.bufferevent, ptr %42, i32 0, i32 2
  %44 = call i32 @event_del(ptr noundef %43)
  store i32 %44, ptr %6, align 4
  br label %45

45:                                               ; preds = %41, %35
  %46 = load i16, ptr %4, align 2
  %47 = sext i16 %46 to i32
  %48 = and i32 %47, 4
  %49 = icmp ne i32 %48, 0
  br i1 %49, label %50, label %79

50:                                               ; preds = %45
  %51 = load ptr, ptr %5, align 8
  %52 = getelementptr inbounds nuw %struct.bufferevent_private, ptr %51, i32 0, i32 5
  %53 = load i16, ptr %52, align 2
  %54 = icmp ne i16 %53, 0
  br i1 %54, label %79, label %55

55:                                               ; preds = %50
  %56 = load ptr, ptr %3, align 8
  %57 = getelementptr inbounds nuw %struct.bufferevent, ptr %56, i32 0, i32 13
  %58 = getelementptr inbounds nuw %struct.timeval, ptr %57, i32 0, i32 0
  %59 = load i64, ptr %58, align 8
  %60 = icmp ne i64 %59, 0
  br i1 %60, label %67, label %61

61:                                               ; preds = %55
  %62 = load ptr, ptr %3, align 8
  %63 = getelementptr inbounds nuw %struct.bufferevent, ptr %62, i32 0, i32 13
  %64 = getelementptr inbounds nuw %struct.timeval, ptr %63, i32 0, i32 1
  %65 = load i64, ptr %64, align 8
  %66 = icmp ne i64 %65, 0
  br i1 %66, label %67, label %79

67:                                               ; preds = %61, %55
  %68 = load ptr, ptr %3, align 8
  %69 = getelementptr inbounds nuw %struct.bufferevent, ptr %68, i32 0, i32 5
  %70 = load ptr, ptr %69, align 8
  %71 = call i64 @evbuffer_get_length(ptr noundef %70)
  %72 = icmp ne i64 %71, 0
  br i1 %72, label %73, label %79

73:                                               ; preds = %67
  %74 = load ptr, ptr %3, align 8
  %75 = getelementptr inbounds nuw %struct.bufferevent, ptr %74, i32 0, i32 3
  %76 = load ptr, ptr %3, align 8
  %77 = getelementptr inbounds nuw %struct.bufferevent, ptr %76, i32 0, i32 13
  %78 = call i32 @event_add(ptr noundef %75, ptr noundef %77)
  store i32 %78, ptr %7, align 4
  br label %83

79:                                               ; preds = %67, %61, %50, %45
  %80 = load ptr, ptr %3, align 8
  %81 = getelementptr inbounds nuw %struct.bufferevent, ptr %80, i32 0, i32 3
  %82 = call i32 @event_del(ptr noundef %81)
  store i32 %82, ptr %7, align 4
  br label %83

83:                                               ; preds = %79, %73
  %84 = load i32, ptr %6, align 4
  %85 = icmp slt i32 %84, 0
  br i1 %85, label %89, label %86

86:                                               ; preds = %83
  %87 = load i32, ptr %7, align 4
  %88 = icmp slt i32 %87, 0
  br i1 %88, label %89, label %90

89:                                               ; preds = %86, %83
  store i32 -1, ptr %2, align 4
  store i32 1, ptr %8, align 4
  br label %91

90:                                               ; preds = %86
  store i32 0, ptr %2, align 4
  store i32 1, ptr %8, align 4
  br label %91

91:                                               ; preds = %90, %89
  call void @llvm.lifetime.end.p0(i64 4, ptr %7) #7
  call void @llvm.lifetime.end.p0(i64 4, ptr %6) #7
  call void @llvm.lifetime.end.p0(i64 8, ptr %5) #7
  call void @llvm.lifetime.end.p0(i64 2, ptr %4) #7
  %92 = load i32, ptr %2, align 4
  ret i32 %92
}