; Function Attrs: nounwind uwtable
define range(i32 -1, 1) i32 @bufferevent_generic_adj_timeouts_(ptr noundef %0) local_unnamed_addr #0 {
  %2 = getelementptr inbounds nuw i8, ptr %0, i64 368
  %3 = load i16, ptr %2, align 8
  %4 = and i16 %3, 2
  %.not = icmp eq i16 %4, 0
  br i1 %.not, label %17, label %5

5:                                                ; preds = %1
  %6 = getelementptr inbounds nuw i8, ptr %0, i64 388
  %7 = load i16, ptr %6, align 4
  %.not22 = icmp eq i16 %7, 0
  br i1 %.not22, label %8, label %17

8:                                                ; preds = %5
  %9 = getelementptr inbounds nuw i8, ptr %0, i64 336
  %10 = load i64, ptr %9, align 8
  %.not23 = icmp eq i64 %10, 0
  br i1 %.not23, label %11, label %14

11:                                               ; preds = %8
  %12 = getelementptr inbounds nuw i8, ptr %0, i64 344
  %13 = load i64, ptr %12, align 8
  %.not24 = icmp eq i64 %13, 0
  br i1 %.not24, label %17, label %14

14:                                               ; preds = %11, %8
  %15 = getelementptr inbounds nuw i8, ptr %0, i64 16
  %16 = tail call i32 @event_add(ptr noundef nonnull %15, ptr noundef nonnull %9) #7
  br label %20

17:                                               ; preds = %11, %5, %1
  %18 = getelementptr inbounds nuw i8, ptr %0, i64 16
  %19 = tail call i32 @event_del(ptr noundef nonnull %18) #7
  br label %20

20:                                               ; preds = %17, %14
  %.020 = phi i32 [ %19, %17 ], [ %16, %14 ]
  %21 = and i16 %3, 4
  %.not25 = icmp eq i16 %21, 0
  br i1 %.not25, label %38, label %22

22:                                               ; preds = %20
  %23 = getelementptr inbounds nuw i8, ptr %0, i64 390
  %24 = load i16, ptr %23, align 2
  %.not26 = icmp eq i16 %24, 0
  br i1 %.not26, label %25, label %38

25:                                               ; preds = %22
  %26 = getelementptr inbounds nuw i8, ptr %0, i64 352
  %27 = load i64, ptr %26, align 8
  %.not27 = icmp eq i64 %27, 0
  br i1 %.not27, label %28, label %31

28:                                               ; preds = %25
  %29 = getelementptr inbounds nuw i8, ptr %0, i64 360
  %30 = load i64, ptr %29, align 8
  %.not28 = icmp eq i64 %30, 0
  br i1 %.not28, label %38, label %31

31:                                               ; preds = %28, %25
  %32 = getelementptr inbounds nuw i8, ptr %0, i64 264
  %33 = load ptr, ptr %32, align 8
  %34 = tail call i64 @evbuffer_get_length(ptr noundef %33) #7
  %.not29 = icmp eq i64 %34, 0
  br i1 %.not29, label %38, label %35

35:                                               ; preds = %31
  %36 = getelementptr inbounds nuw i8, ptr %0, i64 136
  %37 = tail call i32 @event_add(ptr noundef nonnull %36, ptr noundef nonnull %26) #7
  br label %41

38:                                               ; preds = %31, %28, %22, %20
  %39 = getelementptr inbounds nuw i8, ptr %0, i64 136
  %40 = tail call i32 @event_del(ptr noundef nonnull %39) #7
  br label %41

41:                                               ; preds = %38, %35
  %.0 = phi i32 [ %40, %38 ], [ %37, %35 ]
  %42 = icmp slt i32 %.020, 0
  %43 = icmp slt i32 %.0, 0
  %or.cond = select i1 %42, i1 true, i1 %43
  %. = sext i1 %or.cond to i32
  ret i32 %.
}